target datalayout = "e-m:e-p270:32:32-p271:32:32-p272:64:64-i64:64-i128:128-f80:128-n8:16:32:64-S128"
target triple = "x86_64-unknown-linux-gnu"

%class.aiVector3t = type { float, float, float }

; Function Attrs: mustprogress nounwind uwtable
define linkonce_odr hidden noundef nonnull align 4 dereferenceable(12) ptr @_ZN10aiVector3tIfEdVEf(ptr noundef nonnull align 4 dereferenceable(12) %this, float noundef %f) #0 comdat align 2 {
entry:
  %retval = alloca ptr, align 8
  %this.addr = alloca ptr, align 8
  %f.addr = alloca float, align 4
  %invF = alloca float, align 4
  store ptr %this, ptr %this.addr, align 8
  store float %f, ptr %f.addr, align 4
  %this1 = load ptr, ptr %this.addr, align 8
  %0 = load float, ptr %f.addr, align 4
  %cmp = fcmp oeq float %0, 0.000000e+00
  br i1 %cmp, label %if.then, label %if.end

if.then:                                          ; preds = %entry
  store ptr %this1, ptr %retval, align 8
  br label %return

if.end:                                           ; preds = %entry
  %1 = load float, ptr %f.addr, align 4
  %div = fdiv float 1.000000e+00, %1
  store float %div, ptr %invF, align 4
  %2 = load float, ptr %invF, align 4
  %x = getelementptr inbounds %class.aiVector3t, ptr %this1, i32 0, i32 0
  %3 = load float, ptr %x, align 4
  %mul = fmul float %3, %2
  store float %mul, ptr %x, align 4
  %4 = load float, ptr %invF, align 4
  %y = getelementptr inbounds %class.aiVector3t, ptr %this1, i32 0, i32 1
  %5 = load float, ptr %y, align 4
  %mul2 = fmul float %5, %4
  store float %mul2, ptr %y, align 4
  %6 = load float, ptr %invF, align 4
  %z = getelementptr inbounds %class.aiVector3t, ptr %this1, i32 0, i32 2
  %7 = load float, ptr %z, align 4
  %mul3 = fmul float %7, %6
  store float %mul3, ptr %z, align 4
  store ptr %this1, ptr %retval, align 8
  br label %return

return:                                           ; preds = %if.end, %if.then
  %8 = load ptr, ptr %retval, align 8
  ret ptr %8
}

; Function Attrs: mustprogress uwtable
define void @aiVector3DivideByScalar(ptr noundef %dst, float noundef %s) #5 {
entry:
  %dst.addr = alloca ptr, align 8
  %s.addr = alloca float, align 4
  store ptr %dst, ptr %dst.addr, align 8
  store float %s, ptr %s.addr, align 4
  %0 = load float, ptr %s.addr, align 4
  %1 = load ptr, ptr %dst.addr, align 8
  %call = call noundef nonnull align 4 dereferenceable(12) ptr @_ZN10aiVector3tIfEdVEf(ptr noundef nonnull align 4 dereferenceable(12) %1, float noundef %0)
  ret void
}