; Function Attrs: mustprogress nofree norecurse nosync nounwind willreturn memory(argmem: readwrite) uwtable
define void @aiVector3DivideByScalar(ptr nocapture noundef %dst, float noundef %s) local_unnamed_addr #11 {
entry:
  %cmp.i = fcmp oeq float %s, 0.000000e+00
  br i1 %cmp.i, label %_ZN10aiVector3tIfEdVEf.exit, label %if.end.i

if.end.i:                                         ; preds = %entry
  %div.i = fdiv float 1.000000e+00, %s
  %0 = load <2 x float>, ptr %dst, align 4
  %1 = insertelement <2 x float> poison, float %div.i, i64 0
  %2 = shufflevector <2 x float> %1, <2 x float> poison, <2 x i32> zeroinitializer
  %3 = fmul <2 x float> %2, %0
  store <2 x float> %3, ptr %dst, align 4
  %z.i = getelementptr inbounds i8, ptr %dst, i64 8
  %4 = load float, ptr %z.i, align 4
  %mul3.i = fmul float %div.i, %4
  store float %mul3.i, ptr %z.i, align 4
  br label %_ZN10aiVector3tIfEdVEf.exit

_ZN10aiVector3tIfEdVEf.exit:                      ; preds = %entry, %if.end.i
  ret void
}